
room-monitor.elf:     file format elf32-avr

Sections:
Idx Name          Size      VMA       LMA       File off  Algn
  0 .data         00000014  00800100  000003c4  00000438  2**0
                  CONTENTS, ALLOC, LOAD, DATA
  1 .text         000003c4  00000000  00000000  00000074  2**1
                  CONTENTS, ALLOC, LOAD, READONLY, CODE
  2 .comment      00000030  00000000  00000000  0000044c  2**0
                  CONTENTS, READONLY
  3 .note.gnu.avr.deviceinfo 00000040  00000000  00000000  0000047c  2**2
                  CONTENTS, READONLY
  4 .debug_aranges 000000b8  00000000  00000000  000004bc  2**0
                  CONTENTS, READONLY, DEBUGGING
  5 .debug_info   00000ca3  00000000  00000000  00000574  2**0
                  CONTENTS, READONLY, DEBUGGING
  6 .debug_abbrev 0000092d  00000000  00000000  00001217  2**0
                  CONTENTS, READONLY, DEBUGGING
  7 .debug_line   000006d2  00000000  00000000  00001b44  2**0
                  CONTENTS, READONLY, DEBUGGING
  8 .debug_frame  0000011c  00000000  00000000  00002218  2**2
                  CONTENTS, READONLY, DEBUGGING
  9 .debug_str    0000047f  00000000  00000000  00002334  2**0
                  CONTENTS, READONLY, DEBUGGING
 10 .debug_loc    00000315  00000000  00000000  000027b3  2**0
                  CONTENTS, READONLY, DEBUGGING
 11 .debug_ranges 00000078  00000000  00000000  00002ac8  2**0
                  CONTENTS, READONLY, DEBUGGING

Disassembly of section .text:

00000000 <__vectors>:
   0:	0c 94 34 00 	jmp	0x68	; 0x68 <__ctors_end>
   4:	0c 94 49 00 	jmp	0x92	; 0x92 <__bad_interrupt>
   8:	0c 94 49 00 	jmp	0x92	; 0x92 <__bad_interrupt>
   c:	0c 94 49 00 	jmp	0x92	; 0x92 <__bad_interrupt>
  10:	0c 94 49 00 	jmp	0x92	; 0x92 <__bad_interrupt>
  14:	0c 94 49 00 	jmp	0x92	; 0x92 <__bad_interrupt>
  18:	0c 94 49 00 	jmp	0x92	; 0x92 <__bad_interrupt>
  1c:	0c 94 49 00 	jmp	0x92	; 0x92 <__bad_interrupt>
  20:	0c 94 49 00 	jmp	0x92	; 0x92 <__bad_interrupt>
  24:	0c 94 49 00 	jmp	0x92	; 0x92 <__bad_interrupt>
  28:	0c 94 49 00 	jmp	0x92	; 0x92 <__bad_interrupt>
  2c:	0c 94 49 00 	jmp	0x92	; 0x92 <__bad_interrupt>
  30:	0c 94 49 00 	jmp	0x92	; 0x92 <__bad_interrupt>
  34:	0c 94 49 00 	jmp	0x92	; 0x92 <__bad_interrupt>
  38:	0c 94 49 00 	jmp	0x92	; 0x92 <__bad_interrupt>
  3c:	0c 94 49 00 	jmp	0x92	; 0x92 <__bad_interrupt>
  40:	0c 94 49 00 	jmp	0x92	; 0x92 <__bad_interrupt>
  44:	0c 94 49 00 	jmp	0x92	; 0x92 <__bad_interrupt>
  48:	0c 94 49 00 	jmp	0x92	; 0x92 <__bad_interrupt>
  4c:	0c 94 49 00 	jmp	0x92	; 0x92 <__bad_interrupt>
  50:	0c 94 49 00 	jmp	0x92	; 0x92 <__bad_interrupt>
  54:	0c 94 49 00 	jmp	0x92	; 0x92 <__bad_interrupt>
  58:	0c 94 49 00 	jmp	0x92	; 0x92 <__bad_interrupt>
  5c:	0c 94 49 00 	jmp	0x92	; 0x92 <__bad_interrupt>
  60:	0c 94 49 00 	jmp	0x92	; 0x92 <__bad_interrupt>
  64:	0c 94 49 00 	jmp	0x92	; 0x92 <__bad_interrupt>

00000068 <__ctors_end>:
  68:	11 24       	eor	r1, r1
  6a:	1f be       	out	0x3f, r1	; 63
  6c:	cf ef       	ldi	r28, 0xFF	; 255
  6e:	d8 e0       	ldi	r29, 0x08	; 8
  70:	de bf       	out	0x3e, r29	; 62
  72:	cd bf       	out	0x3d, r28	; 61

00000074 <__do_copy_data>:
  74:	11 e0       	ldi	r17, 0x01	; 1
  76:	a0 e0       	ldi	r26, 0x00	; 0
  78:	b1 e0       	ldi	r27, 0x01	; 1
  7a:	e4 ec       	ldi	r30, 0xC4	; 196
  7c:	f3 e0       	ldi	r31, 0x03	; 3
  7e:	02 c0       	rjmp	.+4      	; 0x84 <__do_copy_data+0x10>
  80:	05 90       	lpm	r0, Z+
  82:	0d 92       	st	X+, r0
  84:	a4 31       	cpi	r26, 0x14	; 20
  86:	b1 07       	cpc	r27, r17
  88:	d9 f7       	brne	.-10     	; 0x80 <__do_copy_data+0xc>
  8a:	0e 94 92 00 	call	0x124	; 0x124 <main>
  8e:	0c 94 e0 01 	jmp	0x3c0	; 0x3c0 <_exit>

00000092 <__bad_interrupt>:
  92:	0c 94 00 00 	jmp	0	; 0x0 <__vectors>

00000096 <adc_init>:

#include "adc.h"

void adc_init(void) {
	// AVcc referans voltajý seç
	ADMUX = (1 << REFS0);
  96:	80 e4       	ldi	r24, 0x40	; 64
  98:	80 93 7c 00 	sts	0x007C, r24	; 0x80007c <__DATA_REGION_ORIGIN__+0x1c>
	// ADC'yi etkinleţtir, prescaler 128 (16MHz/128 = 125kHz)
	ADCSRA = (1 << ADEN) | (1 << ADPS2) | (1 << ADPS1) | (1 << ADPS0);
  9c:	87 e8       	ldi	r24, 0x87	; 135
  9e:	80 93 7a 00 	sts	0x007A, r24	; 0x80007a <__DATA_REGION_ORIGIN__+0x1a>
  a2:	08 95       	ret

000000a4 <adc_read>:
}

uint16_t adc_read(uint8_t channel) {
	// Kanalý seç (alt 4 bit)
	ADMUX = (ADMUX & 0xF0) | (channel & 0x0F);
  a4:	ec e7       	ldi	r30, 0x7C	; 124
  a6:	f0 e0       	ldi	r31, 0x00	; 0
  a8:	90 81       	ld	r25, Z
  aa:	90 7f       	andi	r25, 0xF0	; 240
  ac:	8f 70       	andi	r24, 0x0F	; 15
  ae:	89 2b       	or	r24, r25
  b0:	80 83       	st	Z, r24
	// Dönüţümü baţlat
	ADCSRA |= (1 << ADSC);
  b2:	ea e7       	ldi	r30, 0x7A	; 122
  b4:	f0 e0       	ldi	r31, 0x00	; 0
  b6:	80 81       	ld	r24, Z
  b8:	80 64       	ori	r24, 0x40	; 64
  ba:	80 83       	st	Z, r24
	// Dönüţüm bitene kadar bekle
	while (ADCSRA & (1 << ADSC));
  bc:	80 81       	ld	r24, Z
  be:	86 fd       	sbrc	r24, 6
  c0:	fd cf       	rjmp	.-6      	; 0xbc <adc_read+0x18>
	return ADC;
  c2:	80 91 78 00 	lds	r24, 0x0078	; 0x800078 <__DATA_REGION_ORIGIN__+0x18>
  c6:	90 91 79 00 	lds	r25, 0x0079	; 0x800079 <__DATA_REGION_ORIGIN__+0x19>
  ca:	08 95       	ret

000000cc <gpio_init>:
#include "gpio.h"
#include <util/delay.h>

void gpio_init(void) {
	// LED pinleri cikis
	DDRD |= (1 << LED_RED_PIN) | (1 << LED_YELLOW_PIN) | (1 << LED_GREEN_PIN);
  cc:	8a b1       	in	r24, 0x0a	; 10
  ce:	80 6e       	ori	r24, 0xE0	; 224
  d0:	8a b9       	out	0x0a, r24	; 10
	// Buzzer pini cikis
	DDRB |= (1 << BUZZER_PIN);
  d2:	21 9a       	sbi	0x04, 1	; 4
	// default olarak kapalilar
	PORTD &= ~((1 << LED_RED_PIN) | (1 << LED_YELLOW_PIN) | (1 << LED_GREEN_PIN));
  d4:	8b b1       	in	r24, 0x0b	; 11
  d6:	8f 71       	andi	r24, 0x1F	; 31
  d8:	8b b9       	out	0x0b, r24	; 11
	PORTB &= ~(1 << BUZZER_PIN);
  da:	29 98       	cbi	0x05, 1	; 5
  dc:	08 95       	ret

000000de <led_set>:
}

void led_set(uint8_t red, uint8_t yellow, uint8_t green) {
	if (red)    PORTD |=  (1 << LED_RED_PIN);
  de:	88 23       	and	r24, r24
  e0:	11 f0       	breq	.+4      	; 0xe6 <led_set+0x8>
  e2:	5d 9a       	sbi	0x0b, 5	; 11
  e4:	01 c0       	rjmp	.+2      	; 0xe8 <led_set+0xa>
	else        PORTD &= ~(1 << LED_RED_PIN);
  e6:	5d 98       	cbi	0x0b, 5	; 11

	if (yellow) PORTD |=  (1 << LED_YELLOW_PIN);
  e8:	66 23       	and	r22, r22
  ea:	11 f0       	breq	.+4      	; 0xf0 <led_set+0x12>
  ec:	5e 9a       	sbi	0x0b, 6	; 11
  ee:	01 c0       	rjmp	.+2      	; 0xf2 <led_set+0x14>
	else        PORTD &= ~(1 << LED_YELLOW_PIN);
  f0:	5e 98       	cbi	0x0b, 6	; 11

	if (green)  PORTD |=  (1 << LED_GREEN_PIN);
  f2:	44 23       	and	r20, r20
  f4:	11 f0       	breq	.+4      	; 0xfa <led_set+0x1c>
  f6:	5f 9a       	sbi	0x0b, 7	; 11
  f8:	08 95       	ret
	else        PORTD &= ~(1 << LED_GREEN_PIN);
  fa:	5f 98       	cbi	0x0b, 7	; 11
  fc:	08 95       	ret

000000fe <buzzer_on>:
}

void buzzer_on(void) {
  fe:	88 ee       	ldi	r24, 0xE8	; 232
 100:	93 e0       	ldi	r25, 0x03	; 3
	for (int i = 0; i < 1000; i++) {
		PORTB |=  (1 << BUZZER_PIN);
 102:	29 9a       	sbi	0x05, 1	; 5
	#else
		//round up by default
		__ticks_dc = (uint32_t)(ceil(fabs(__tmp)));
	#endif

	__builtin_avr_delay_cycles(__ticks_dc);
 104:	ef ec       	ldi	r30, 0xCF	; 207
 106:	f7 e0       	ldi	r31, 0x07	; 7
 108:	31 97       	sbiw	r30, 0x01	; 1
 10a:	f1 f7       	brne	.-4      	; 0x108 <buzzer_on+0xa>
 10c:	00 c0       	rjmp	.+0      	; 0x10e <buzzer_on+0x10>
 10e:	00 00       	nop
		_delay_us(500);   // 1kHz kare dalga
		PORTB &= ~(1 << BUZZER_PIN);
 110:	29 98       	cbi	0x05, 1	; 5
 112:	ef ec       	ldi	r30, 0xCF	; 207
 114:	f7 e0       	ldi	r31, 0x07	; 7
 116:	31 97       	sbiw	r30, 0x01	; 1
 118:	f1 f7       	brne	.-4      	; 0x116 <buzzer_on+0x18>
 11a:	00 c0       	rjmp	.+0      	; 0x11c <buzzer_on+0x1e>
 11c:	00 00       	nop
 11e:	01 97       	sbiw	r24, 0x01	; 1
	if (green)  PORTD |=  (1 << LED_GREEN_PIN);
	else        PORTD &= ~(1 << LED_GREEN_PIN);
}

void buzzer_on(void) {
	for (int i = 0; i < 1000; i++) {
 120:	81 f7       	brne	.-32     	; 0x102 <buzzer_on+0x4>
		PORTB |=  (1 << BUZZER_PIN);
		_delay_us(500);   // 1kHz kare dalga
		PORTB &= ~(1 << BUZZER_PIN);
		_delay_us(500);
	}
}
 122:	08 95       	ret

00000124 <main>:

#define BAUD 9600
#define UBRR_VAL (F_CPU/16/BAUD - 1)

int main(void) {
	gpio_init();
 124:	0e 94 66 00 	call	0xcc	; 0xcc <gpio_init>
	adc_init();
 128:	0e 94 4b 00 	call	0x96	; 0x96 <adc_init>
	uart_init(UBRR_VAL);
 12c:	87 e6       	ldi	r24, 0x67	; 103
 12e:	90 e0       	ldi	r25, 0x00	; 0
 130:	0e 94 d1 00 	call	0x1a2	; 0x1a2 <uart_init>

	uint16_t ldr_val, mq135_val;

	while (1) {
		ldr_val   = adc_read(ADC_LDR);
 134:	80 e0       	ldi	r24, 0x00	; 0
 136:	0e 94 52 00 	call	0xa4	; 0xa4 <adc_read>
 13a:	8c 01       	movw	r16, r24
		mq135_val = adc_read(ADC_MQ135);
 13c:	81 e0       	ldi	r24, 0x01	; 1
 13e:	0e 94 52 00 	call	0xa4	; 0xa4 <adc_read>
 142:	ec 01       	movw	r28, r24

		uart_send_string("LDR: ");
 144:	80 e0       	ldi	r24, 0x00	; 0
 146:	91 e0       	ldi	r25, 0x01	; 1
 148:	0e 94 e4 00 	call	0x1c8	; 0x1c8 <uart_send_string>
		uart_send_uint16(ldr_val);
 14c:	c8 01       	movw	r24, r16
 14e:	0e 94 f3 00 	call	0x1e6	; 0x1e6 <uart_send_uint16>
		uart_send_string(" | MQ135: ");
 152:	86 e0       	ldi	r24, 0x06	; 6
 154:	91 e0       	ldi	r25, 0x01	; 1
 156:	0e 94 e4 00 	call	0x1c8	; 0x1c8 <uart_send_string>
		uart_send_uint16(mq135_val);
 15a:	ce 01       	movw	r24, r28
 15c:	0e 94 f3 00 	call	0x1e6	; 0x1e6 <uart_send_uint16>
		uart_send_string("\r\n");
 160:	81 e1       	ldi	r24, 0x11	; 17
 162:	91 e0       	ldi	r25, 0x01	; 1
 164:	0e 94 e4 00 	call	0x1c8	; 0x1c8 <uart_send_string>

		if (ldr_val < 512) {
 168:	01 15       	cp	r16, r1
 16a:	12 40       	sbci	r17, 0x02	; 2
 16c:	30 f4       	brcc	.+12     	; 0x17a <main+0x56>
			led_set(0, 0, 1);
 16e:	41 e0       	ldi	r20, 0x01	; 1
 170:	60 e0       	ldi	r22, 0x00	; 0
 172:	80 e0       	ldi	r24, 0x00	; 0
 174:	0e 94 6f 00 	call	0xde	; 0xde <led_set>
 178:	05 c0       	rjmp	.+10     	; 0x184 <main+0x60>
			} else {
			led_set(1, 0, 0);
 17a:	40 e0       	ldi	r20, 0x00	; 0
 17c:	60 e0       	ldi	r22, 0x00	; 0
 17e:	81 e0       	ldi	r24, 0x01	; 1
 180:	0e 94 6f 00 	call	0xde	; 0xde <led_set>
		}

		if (mq135_val > 700) {
 184:	cd 3b       	cpi	r28, 0xBD	; 189
 186:	d2 40       	sbci	r29, 0x02	; 2
 188:	10 f0       	brcs	.+4      	; 0x18e <main+0x6a>
			buzzer_on();
 18a:	0e 94 7f 00 	call	0xfe	; 0xfe <buzzer_on>
	#else
		//round up by default
		__ticks_dc = (uint32_t)(ceil(fabs(__tmp)));
	#endif

	__builtin_avr_delay_cycles(__ticks_dc);
 18e:	9f ef       	ldi	r25, 0xFF	; 255
 190:	29 e6       	ldi	r18, 0x69	; 105
 192:	88 e1       	ldi	r24, 0x18	; 24
 194:	91 50       	subi	r25, 0x01	; 1
 196:	20 40       	sbci	r18, 0x00	; 0
 198:	80 40       	sbci	r24, 0x00	; 0
 19a:	e1 f7       	brne	.-8      	; 0x194 <main+0x70>
 19c:	00 c0       	rjmp	.+0      	; 0x19e <main+0x7a>
 19e:	00 00       	nop
 1a0:	c9 cf       	rjmp	.-110    	; 0x134 <main+0x10>

000001a2 <uart_init>:

#include <avr/io.h>
#include "uart.h"

void uart_init(uint16_t ubrr) {
	UBRR0H = (ubrr >> 8);
 1a2:	90 93 c5 00 	sts	0x00C5, r25	; 0x8000c5 <__DATA_REGION_ORIGIN__+0x65>
	UBRR0L = ubrr;
 1a6:	80 93 c4 00 	sts	0x00C4, r24	; 0x8000c4 <__DATA_REGION_ORIGIN__+0x64>
	// Alýcý ve verici etkinleţtir
	UCSR0B = (1 << TXEN0) | (1 << RXEN0);
 1aa:	88 e1       	ldi	r24, 0x18	; 24
 1ac:	80 93 c1 00 	sts	0x00C1, r24	; 0x8000c1 <__DATA_REGION_ORIGIN__+0x61>
	// 8 bit, 1 stop bit, no parity
	UCSR0C = (1 << UCSZ01) | (1 << UCSZ00);
 1b0:	86 e0       	ldi	r24, 0x06	; 6
 1b2:	80 93 c2 00 	sts	0x00C2, r24	; 0x8000c2 <__DATA_REGION_ORIGIN__+0x62>
 1b6:	08 95       	ret

000001b8 <uart_send_char>:
}

void uart_send_char(char c) {
	while (!(UCSR0A & (1 << UDRE0)));
 1b8:	e0 ec       	ldi	r30, 0xC0	; 192
 1ba:	f0 e0       	ldi	r31, 0x00	; 0
 1bc:	90 81       	ld	r25, Z
 1be:	95 ff       	sbrs	r25, 5
 1c0:	fd cf       	rjmp	.-6      	; 0x1bc <uart_send_char+0x4>
	UDR0 = c;
 1c2:	80 93 c6 00 	sts	0x00C6, r24	; 0x8000c6 <__DATA_REGION_ORIGIN__+0x66>
 1c6:	08 95       	ret

000001c8 <uart_send_string>:
}

void uart_send_string(const char *str) {
 1c8:	cf 93       	push	r28
 1ca:	df 93       	push	r29
 1cc:	ec 01       	movw	r28, r24
	while (*str) {
 1ce:	88 81       	ld	r24, Y
 1d0:	88 23       	and	r24, r24
 1d2:	31 f0       	breq	.+12     	; 0x1e0 <uart_send_string+0x18>
 1d4:	21 96       	adiw	r28, 0x01	; 1
		uart_send_char(*str++);
 1d6:	0e 94 dc 00 	call	0x1b8	; 0x1b8 <uart_send_char>
	while (!(UCSR0A & (1 << UDRE0)));
	UDR0 = c;
}

void uart_send_string(const char *str) {
	while (*str) {
 1da:	89 91       	ld	r24, Y+
 1dc:	81 11       	cpse	r24, r1
 1de:	fb cf       	rjmp	.-10     	; 0x1d6 <uart_send_string+0xe>
		uart_send_char(*str++);
	}
}
 1e0:	df 91       	pop	r29
 1e2:	cf 91       	pop	r28
 1e4:	08 95       	ret

000001e6 <uart_send_uint16>:

void uart_send_uint16(uint16_t val) {
 1e6:	cf 93       	push	r28
 1e8:	df 93       	push	r29
 1ea:	00 d0       	rcall	.+0      	; 0x1ec <uart_send_uint16+0x6>
 1ec:	00 d0       	rcall	.+0      	; 0x1ee <uart_send_uint16+0x8>
 1ee:	00 d0       	rcall	.+0      	; 0x1f0 <uart_send_uint16+0xa>
 1f0:	cd b7       	in	r28, 0x3d	; 61
 1f2:	de b7       	in	r29, 0x3e	; 62
 1f4:	fc 01       	movw	r30, r24
	char buf[6];
	buf[5] = '\0';
 1f6:	1e 82       	std	Y+6, r1	; 0x06
	buf[4] = '0' + (val % 10); val /= 10;
 1f8:	9c 01       	movw	r18, r24
 1fa:	ad ec       	ldi	r26, 0xCD	; 205
 1fc:	bc ec       	ldi	r27, 0xCC	; 204
 1fe:	0e 94 d1 01 	call	0x3a2	; 0x3a2 <__umulhisi3>
 202:	ac 01       	movw	r20, r24
 204:	56 95       	lsr	r21
 206:	47 95       	ror	r20
 208:	56 95       	lsr	r21
 20a:	47 95       	ror	r20
 20c:	56 95       	lsr	r21
 20e:	47 95       	ror	r20
 210:	9a 01       	movw	r18, r20
 212:	22 0f       	add	r18, r18
 214:	33 1f       	adc	r19, r19
 216:	ca 01       	movw	r24, r20
 218:	88 0f       	add	r24, r24
 21a:	99 1f       	adc	r25, r25
 21c:	88 0f       	add	r24, r24
 21e:	99 1f       	adc	r25, r25
 220:	88 0f       	add	r24, r24
 222:	99 1f       	adc	r25, r25
 224:	82 0f       	add	r24, r18
 226:	93 1f       	adc	r25, r19
 228:	9f 01       	movw	r18, r30
 22a:	28 1b       	sub	r18, r24
 22c:	39 0b       	sbc	r19, r25
 22e:	c9 01       	movw	r24, r18
 230:	80 5d       	subi	r24, 0xD0	; 208
 232:	8d 83       	std	Y+5, r24	; 0x05
	buf[3] = '0' + (val % 10); val /= 10;
 234:	9a 01       	movw	r18, r20
 236:	0e 94 d1 01 	call	0x3a2	; 0x3a2 <__umulhisi3>
 23a:	96 95       	lsr	r25
 23c:	87 95       	ror	r24
 23e:	96 95       	lsr	r25
 240:	87 95       	ror	r24
 242:	96 95       	lsr	r25
 244:	87 95       	ror	r24
 246:	9c 01       	movw	r18, r24
 248:	22 0f       	add	r18, r18
 24a:	33 1f       	adc	r19, r19
 24c:	88 0f       	add	r24, r24
 24e:	99 1f       	adc	r25, r25
 250:	88 0f       	add	r24, r24
 252:	99 1f       	adc	r25, r25
 254:	88 0f       	add	r24, r24
 256:	99 1f       	adc	r25, r25
 258:	82 0f       	add	r24, r18
 25a:	93 1f       	adc	r25, r19
 25c:	48 1b       	sub	r20, r24
 25e:	59 0b       	sbc	r21, r25
 260:	40 5d       	subi	r20, 0xD0	; 208
 262:	4c 83       	std	Y+4, r20	; 0x04
	buf[2] = '0' + (val % 10); val /= 10;
 264:	9f 01       	movw	r18, r30
 266:	36 95       	lsr	r19
 268:	27 95       	ror	r18
 26a:	36 95       	lsr	r19
 26c:	27 95       	ror	r18
 26e:	ab e7       	ldi	r26, 0x7B	; 123
 270:	b4 e1       	ldi	r27, 0x14	; 20
 272:	0e 94 d1 01 	call	0x3a2	; 0x3a2 <__umulhisi3>
 276:	ac 01       	movw	r20, r24
 278:	56 95       	lsr	r21
 27a:	47 95       	ror	r20
 27c:	9a 01       	movw	r18, r20
 27e:	ad ec       	ldi	r26, 0xCD	; 205
 280:	bc ec       	ldi	r27, 0xCC	; 204
 282:	0e 94 d1 01 	call	0x3a2	; 0x3a2 <__umulhisi3>
 286:	96 95       	lsr	r25
 288:	87 95       	ror	r24
 28a:	96 95       	lsr	r25
 28c:	87 95       	ror	r24
 28e:	96 95       	lsr	r25
 290:	87 95       	ror	r24
 292:	9c 01       	movw	r18, r24
 294:	22 0f       	add	r18, r18
 296:	33 1f       	adc	r19, r19
 298:	88 0f       	add	r24, r24
 29a:	99 1f       	adc	r25, r25
 29c:	88 0f       	add	r24, r24
 29e:	99 1f       	adc	r25, r25
 2a0:	88 0f       	add	r24, r24
 2a2:	99 1f       	adc	r25, r25
 2a4:	82 0f       	add	r24, r18
 2a6:	93 1f       	adc	r25, r19
 2a8:	48 1b       	sub	r20, r24
 2aa:	59 0b       	sbc	r21, r25
 2ac:	40 5d       	subi	r20, 0xD0	; 208
 2ae:	4b 83       	std	Y+3, r20	; 0x03
	buf[1] = '0' + (val % 10); val /= 10;
 2b0:	9f 01       	movw	r18, r30
 2b2:	36 95       	lsr	r19
 2b4:	27 95       	ror	r18
 2b6:	36 95       	lsr	r19
 2b8:	27 95       	ror	r18
 2ba:	36 95       	lsr	r19
 2bc:	27 95       	ror	r18
 2be:	a5 ec       	ldi	r26, 0xC5	; 197
 2c0:	b0 e2       	ldi	r27, 0x20	; 32
 2c2:	0e 94 d1 01 	call	0x3a2	; 0x3a2 <__umulhisi3>
 2c6:	ac 01       	movw	r20, r24
 2c8:	52 95       	swap	r21
 2ca:	42 95       	swap	r20
 2cc:	4f 70       	andi	r20, 0x0F	; 15
 2ce:	45 27       	eor	r20, r21
 2d0:	5f 70       	andi	r21, 0x0F	; 15
 2d2:	45 27       	eor	r20, r21
 2d4:	9a 01       	movw	r18, r20
 2d6:	ad ec       	ldi	r26, 0xCD	; 205
 2d8:	bc ec       	ldi	r27, 0xCC	; 204
 2da:	0e 94 d1 01 	call	0x3a2	; 0x3a2 <__umulhisi3>
 2de:	96 95       	lsr	r25
 2e0:	87 95       	ror	r24
 2e2:	96 95       	lsr	r25
 2e4:	87 95       	ror	r24
 2e6:	96 95       	lsr	r25
 2e8:	87 95       	ror	r24
 2ea:	9c 01       	movw	r18, r24
 2ec:	22 0f       	add	r18, r18
 2ee:	33 1f       	adc	r19, r19
 2f0:	88 0f       	add	r24, r24
 2f2:	99 1f       	adc	r25, r25
 2f4:	88 0f       	add	r24, r24
 2f6:	99 1f       	adc	r25, r25
 2f8:	88 0f       	add	r24, r24
 2fa:	99 1f       	adc	r25, r25
 2fc:	82 0f       	add	r24, r18
 2fe:	93 1f       	adc	r25, r19
 300:	48 1b       	sub	r20, r24
 302:	59 0b       	sbc	r21, r25
 304:	40 5d       	subi	r20, 0xD0	; 208
 306:	4a 83       	std	Y+2, r20	; 0x02
	buf[0] = '0' + (val % 10);
 308:	9f 01       	movw	r18, r30
 30a:	32 95       	swap	r19
 30c:	22 95       	swap	r18
 30e:	2f 70       	andi	r18, 0x0F	; 15
 310:	23 27       	eor	r18, r19
 312:	3f 70       	andi	r19, 0x0F	; 15
 314:	23 27       	eor	r18, r19
 316:	a7 e4       	ldi	r26, 0x47	; 71
 318:	b3 e0       	ldi	r27, 0x03	; 3
 31a:	0e 94 d1 01 	call	0x3a2	; 0x3a2 <__umulhisi3>
 31e:	ac 01       	movw	r20, r24
 320:	56 95       	lsr	r21
 322:	47 95       	ror	r20
 324:	56 95       	lsr	r21
 326:	47 95       	ror	r20
 328:	56 95       	lsr	r21
 32a:	47 95       	ror	r20
 32c:	9a 01       	movw	r18, r20
 32e:	ad ec       	ldi	r26, 0xCD	; 205
 330:	bc ec       	ldi	r27, 0xCC	; 204
 332:	0e 94 d1 01 	call	0x3a2	; 0x3a2 <__umulhisi3>
 336:	96 95       	lsr	r25
 338:	87 95       	ror	r24
 33a:	96 95       	lsr	r25
 33c:	87 95       	ror	r24
 33e:	96 95       	lsr	r25
 340:	87 95       	ror	r24
 342:	9c 01       	movw	r18, r24
 344:	22 0f       	add	r18, r18
 346:	33 1f       	adc	r19, r19
 348:	88 0f       	add	r24, r24
 34a:	99 1f       	adc	r25, r25
 34c:	88 0f       	add	r24, r24
 34e:	99 1f       	adc	r25, r25
 350:	88 0f       	add	r24, r24
 352:	99 1f       	adc	r25, r25
 354:	82 0f       	add	r24, r18
 356:	93 1f       	adc	r25, r19
 358:	48 1b       	sub	r20, r24
 35a:	59 0b       	sbc	r21, r25
 35c:	40 5d       	subi	r20, 0xD0	; 208
 35e:	49 83       	std	Y+1, r20	; 0x01
	// Baţtaki sýfýrlarý atla
	char *p = buf;
	while (*p == '0' && *(p+1) != '\0') p++;
 360:	40 33       	cpi	r20, 0x30	; 48
 362:	71 f4       	brne	.+28     	; 0x380 <uart_send_uint16+0x19a>
 364:	8a 81       	ldd	r24, Y+2	; 0x02
 366:	88 23       	and	r24, r24
 368:	71 f0       	breq	.+28     	; 0x386 <uart_send_uint16+0x1a0>
 36a:	fe 01       	movw	r30, r28
 36c:	32 96       	adiw	r30, 0x02	; 2
 36e:	df 01       	movw	r26, r30
 370:	31 96       	adiw	r30, 0x01	; 1
 372:	8c 91       	ld	r24, X
 374:	80 33       	cpi	r24, 0x30	; 48
 376:	49 f4       	brne	.+18     	; 0x38a <uart_send_uint16+0x1a4>
 378:	80 81       	ld	r24, Z
 37a:	81 11       	cpse	r24, r1
 37c:	f8 cf       	rjmp	.-16     	; 0x36e <uart_send_uint16+0x188>
 37e:	05 c0       	rjmp	.+10     	; 0x38a <uart_send_uint16+0x1a4>
	buf[3] = '0' + (val % 10); val /= 10;
	buf[2] = '0' + (val % 10); val /= 10;
	buf[1] = '0' + (val % 10); val /= 10;
	buf[0] = '0' + (val % 10);
	// Baţtaki sýfýrlarý atla
	char *p = buf;
 380:	de 01       	movw	r26, r28
 382:	11 96       	adiw	r26, 0x01	; 1
 384:	02 c0       	rjmp	.+4      	; 0x38a <uart_send_uint16+0x1a4>
 386:	de 01       	movw	r26, r28
 388:	11 96       	adiw	r26, 0x01	; 1
	while (*p == '0' && *(p+1) != '\0') p++;
	uart_send_string(p);
 38a:	cd 01       	movw	r24, r26
 38c:	0e 94 e4 00 	call	0x1c8	; 0x1c8 <uart_send_string>
 390:	26 96       	adiw	r28, 0x06	; 6
 392:	0f b6       	in	r0, 0x3f	; 63
 394:	f8 94       	cli
 396:	de bf       	out	0x3e, r29	; 62
 398:	0f be       	out	0x3f, r0	; 63
 39a:	cd bf       	out	0x3d, r28	; 61
 39c:	df 91       	pop	r29
 39e:	cf 91       	pop	r28
 3a0:	08 95       	ret

000003a2 <__umulhisi3>:
 3a2:	a2 9f       	mul	r26, r18
 3a4:	b0 01       	movw	r22, r0
 3a6:	b3 9f       	mul	r27, r19
 3a8:	c0 01       	movw	r24, r0
 3aa:	a3 9f       	mul	r26, r19
 3ac:	70 0d       	add	r23, r0
 3ae:	81 1d       	adc	r24, r1
 3b0:	11 24       	eor	r1, r1
 3b2:	91 1d       	adc	r25, r1
 3b4:	b2 9f       	mul	r27, r18
 3b6:	70 0d       	add	r23, r0
 3b8:	81 1d       	adc	r24, r1
 3ba:	11 24       	eor	r1, r1
 3bc:	91 1d       	adc	r25, r1
 3be:	08 95       	ret

000003c0 <_exit>:
 3c0:	f8 94       	cli

000003c2 <__stop_program>:
 3c2:	ff cf       	rjmp	.-2      	; 0x3c2 <__stop_program>
